ccollections
OrderedDict
p0
((lp1
(lp2
VLocus
p3
aVNC_045512              29903 bp ss-RNA     linear   VRL 17-JAN-2020
p4
aa(lp5
VDefinition
p6
aVWuhan seafood market pneumonia virus isolate Wuhan-Hu-1, complete
p7
aa(lp8
VAccession
p9
aVNC_045512
p10
aa(lp11
VVersion
p12
aVNC_045512.2
p13
aa(lp14
VDblink
p15
aVBioProject: PRJNA485481
p16
aa(lp17
VKeywords
p18
aVRefSeq.
p19
aa(lp20
VSource
p21
ag0
((lp22
(lp23
VWuhan seafood market pneumonia virus
p24
ag0
((lp25
(lp26
VORGANISM
p27
aVWuhan seafood market pneumonia virusViruses; Riboviria; Nidovirales; Cornidovirineae; Coronaviridae;Orthocoronavirinae; Betacoronavirus; unclassified Betacoronavirus.
p28
aatp29
Rp30
aatp31
Rp32
aa(lp33
VReference
p34
ag0
((lp35
(lp36
V1  (bases 1 to 29903)
p37
ag0
((lp38
(lp39
VAUTHORS
p40
aVWu,F., Zhao,S., Yu,B., Chen,Y.-M., Wang,W., Hu,Y., Song,Z.-G.,Tao,Z.-W., Tian,J.-H., Pei,Y.-Y., Yuan,M.L., Zhang,Y.-L.,Dai,F.-H., Liu,Y., Wang,Q.-M., Zheng,J.-J., Xu,L., Holmes,E.C. andZhang,Y.-Z.
p41
aa(lp42
VTITLE
p43
aVA novel coronavirus associated with a respiratory disease in Wuhanof Hubei province, China
p44
aa(lp45
VJOURNAL
p46
aVUnpublished
p47
aatp48
Rp49
aa(lp50
V2  (bases 1 to 29903)
p51
ag0
((lp52
(lp53
VCONSRTM
p54
aVNCBI Genome Project
p55
aa(lp56
VTITLE
p57
aVDirect Submission
p58
aa(lp59
VJOURNAL
p60
aVSubmitted (17-JAN-2020) National Center for BiotechnologyInformation, NIH, Bethesda, MD 20894, USA
p61
aatp62
Rp63
aa(lp64
V3  (bases 1 to 29903)
p65
ag0
((lp66
(lp67
VAUTHORS
p68
aVWu,F., Zhao,S., Yu,B., Chen,Y.-M., Wang,W., Hu,Y., Song,Z.-G.,Tao,Z.-W., Tian,J.-H., Pei,Y.-Y., Yuan,M.L., Zhang,Y.-L.,Dai,F.-H., Liu,Y., Wang,Q.-M., Zheng,J.-J., Xu,L., Holmes,E.C. andZhang,Y.-Z.
p69
aa(lp70
VTITLE
p71
aVDirect Submission
p72
aa(lp73
VJOURNAL
p74
aVSubmitted (05-JAN-2020) Shanghai Public Health Clinical Center &School of Public Health, Fudan University, Shanghai, China
p75
aatp76
Rp77
aatp78
Rp79
aa(lp80
VComment
p81
aVPROVISIONAL REFSEQ: This record has not yet been subject to final
p82
aa(lp83
VFeatures
p84
ag0
((lp85
(lp86
VLocation/Qualifiers
p87
ag0
((lp88
(lp89
Vsource
p90
ag0
((lp91
(lp92
V1..29903
p93
ag0
((lp94
(lp95
Vorganism
p96
aVWuhan seafood market pneumonia virus
p97
aa(lp98
Vmol_type
p99
aVgenomic RNA
p100
aa(lp101
Visolate
p102
aVWuhan-Hu-1
p103
aa(lp104
Vhost
p105
aVHomo sapiens
p106
aa(lp107
Vdb_xref
p108
aVtaxon:2697049
p109
aa(lp110
Vcountry
p111
aVChina
p112
aa(lp113
Vcollection_date
p114
aVDec-2019
p115
aatp116
Rp117
aatp118
Rp119
aa(lp120
V5'UTR
p121
aV1..265
p122
aa(lp123
Vgene
p124
ag0
((lp125
(lp126
V266..21555
p127
ag0
((lp128
(lp129
Vgene
p130
aVorf1ab
p131
aa(lp132
Vlocus_tag
p133
aVGU280_gp01
p134
aa(lp135
Vdb_xref
p136
aVGeneID:43560238
p137
aatp138
Rp139
aa(lp140
V21563..25384
p141
ag0
((lp142
(lp143
Vgene
p144
aVS
p145
aa(lp146
Vlocus_tag
p147
aVGU280_gp02
p148
aa(lp149
Vdb_xref
p150
aVGeneID:43560230
p151
aatp152
Rp153
aa(lp154
V25393..26220
p155
ag0
((lp156
(lp157
Vgene
p158
aVORF3a
p159
aa(lp160
Vlocus_tag
p161
aVGU280_gp03
p162
aa(lp163
Vdb_xref
p164
aVGeneID:43560231
p165
aatp166
Rp167
aa(lp168
V26245..26472
p169
ag0
((lp170
(lp171
Vgene
p172
aVE
p173
aa(lp174
Vlocus_tag
p175
aVGU280_gp04
p176
aa(lp177
Vdb_xref
p178
aVGeneID:43560232
p179
aatp180
Rp181
aa(lp182
V26523..27191
p183
ag0
((lp184
(lp185
Vgene
p186
aVM
p187
aa(lp188
Vlocus_tag
p189
aVGU280_gp05
p190
aa(lp191
Vdb_xref
p192
aVGeneID:43560233
p193
aatp194
Rp195
aa(lp196
V27202..27387
p197
ag0
((lp198
(lp199
Vgene
p200
aVORF6
p201
aa(lp202
Vlocus_tag
p203
aVGU280_gp06
p204
aa(lp205
Vdb_xref
p206
aVGeneID:43560234
p207
aatp208
Rp209
aa(lp210
V27394..27759
p211
ag0
((lp212
(lp213
Vgene
p214
aVORF7a
p215
aa(lp216
Vlocus_tag
p217
aVGU280_gp07
p218
aa(lp219
Vdb_xref
p220
aVGeneID:43560235
p221
aatp222
Rp223
aa(lp224
V27894..28259
p225
ag0
((lp226
(lp227
Vgene
p228
aVORF8
p229
aa(lp230
Vlocus_tag
p231
aVGU280_gp08
p232
aa(lp233
Vdb_xref
p234
aVGeneID:43560236
p235
aatp236
Rp237
aa(lp238
V28274..29533
p239
ag0
((lp240
(lp241
Vgene
p242
aVN
p243
aa(lp244
Vlocus_tag
p245
aVGU280_gp09
p246
aa(lp247
Vdb_xref
p248
aVGeneID:43560237
p249
aatp250
Rp251
aa(lp252
V29558..29674
p253
ag0
((lp254
(lp255
Vgene
p256
aVORF10
p257
aa(lp258
Vlocus_tag
p259
aVGU280_gp10
p260
aa(lp261
Vdb_xref
p262
aVGeneID:43569679
p263
aatp264
Rp265
aatp266
Rp267
aa(lp268
VCDS
p269
ag0
((lp270
(lp271
Vjoin(266..13468,13468..21555)
p272
ag0
((lp273
(lp274
Vgene
p275
aVorf1ab
p276
aa(lp277
Vlocus_tag
p278
aVGU280_gp01/ribosomal_slippage
p279
aa(lp280
Vnote
p281
aVtranslated by -1 ribosomal frameshift
p282
aa(lp283
Vcodon_start
p284
aV1
p285
aa(lp286
Vproduct
p287
aVorf1ab polyprotein (pp1ab)
p288
aa(lp289
Vprotein_id
p290
aVYP_009724389.1
p291
aa(lp292
Vdb_xref
p293
aVGeneID:43560238
p294
aa(lp295
Vtranslation
p296
aVMESLVPGFNEKTHVQLSLPVLQVRDVLVRGFGDSVEEVLSEARQHLKDGTCGLVEVEKGVLPQLEQPYVFIKRSDARTAPHGHVMVELVAELEGIQYGRSGETLGVLVPHVGEIPVAYRKVLLRKNGNKGAGGHSYGADLKSFDLGDELGTDPYEDFQENWNTKHSSGVTRELMRELNGGAYTRYVDNNFCGPDGYPLECIKDLLARAGKASCTLSEQLDFIDTKRGVYCCREHEHEIAWYTERSEKSYELQTPFEIKLAKKFDTFNGECPNFVFPLNSIIKTIQPRVEKKKLDGFMGRIRSVYPVASPNECNQMCLSTLMKCDHCGETSWQTGDFVKATCEFCGTENLTKEGATTCGYLPQNAVVKIYCPACHNSEVGPEHSLAEYHNESGLKTILRKGGRTIAFGGCVFSYVGCHNKCAYWVPRASANIGCNHTGVVGEGSEGLNDNLLEILQKEKVNINIVGDFKLNEEIAIILASFSASTSAFVETVKGLDYKAFKQIVESCGNFKVTKGKAKKGAWNIGEQKSILSPLYAFASEAARVVRSIFSRTLETAQNSVRVLQKAAITILDGISQYSLRLIDAMMFTSDLATNNLVVMAYITGGVVQLTSQWLTNIFGTVYEKLKPVLDWLEEKFKEGVEFLRDGWEIVKFISTCACEIVGGQIVTCAKEIKESVQTFFKLVNKFLALCADSIIIGGAKLKALNLGETFVTHSKGLYRKCVKSREETGLLMPLKAPKEIIFLEGETLPTEVLTEEVVLKTGDLQPLEQPTSEAVEAPLVGTPVCINGLMLLEIKDTEKYCALAPNMMVTNNTFTLKGGAPTKVTFGDDTVIEVQGYKSVNITFELDERIDKVLNEKCSAYTVELGTEVNEFACVVADAVIKTLQPVSELLTPLGIDLDEWSMATYYLFDESGEFKLASHMYCSFYPPDEDEEEGDCEEEEFEPSTQYEYGTEDDYQGKPLEFGATSAALQPEEEQEEDWLDDDSQQTVGQQDGSEDNQTTTIQTIVEVQPQLEMELTPVVQTIEVNSFSGYLKLTDNVYIKNADIVEEAKKVKPTVVVNAANVYLKHGGGVAGALNKATNNAMQVESDDYIATNGPLKVGGSCVLSGHNLAKHCLHVVGPNVNKGEDIQLLKSAYENFNQHEVLLAPLLSAGIFGADPIHSLRVCVDTVRTNVYLAVFDKNLYDKLVSSFLEMKSEKQVEQKIAEIPKEEVKPFITESKPSVEQRKQDDKKIKACVEEVTTTLEETKFLTENLLLYIDINGNLHPDSATLVSDIDITFLKKDAPYIVGDVVQEGVLTAVVIPTKKAGGTTEMLAKALRKVPTDNYITTYPGQGLNGYTVEEAKTVLKKCKSAFYILPSIISNEKQEILGTVSWNLREMLAHAEETRKLMPVCVETKAIVSTIQRKYKGIKIQEGVVDYGARFYFYTSKTTVASLINTLNDLNETLVTMPLGYVTHGLNLEEAARYMRSLKVPATVSVSSPDAVTAYNGYLTSSSKTPEEHFIETISLAGSYKDWSYSGQSTQLGIEFLKRGDKSVYYTSNPTTFHLDGEVITFDNLKTLLSLREVRTIKVFTTVDNINLHTQVVDMSMTYGQQFGPTYLDGADVTKIKPHNSHEGKTFYVLPNDDTLRVEAFEYYHTTDPSFLGRYMSALNHTKKWKYPQVNGLTSIKWADNNCYLATALLTLQQIELKFNPPALQDAYYRARAGEAANFCALILAYCNKTVGELGDVRETMSYLFQHANLDSCKRVLNVVCKTCGQQQTTLKGVEAVMYMGTLSYEQFKKGVQIPCTCGKQATKYLVQQESPFVMMSAPPAQYELKHGTFTCASEYTGNYQCGHYKHITSKETLYCIDGALLTKSSEYKGPITDVFYKENSYTTTIKPVTYKLDGVVCTEIDPKLDNYYKKDNSYFTEQPIDLVPNQPYPNASFDNFKFVCDNIKFADDLNQLTGYKKPASRELKVTFFPDLNGDVVAIDYKHYTPSFKKGAKLLHKPIVWHVNNATNKATYKPNTWCIRCLWSTKPVETSNSFDVLKSEDAQGMDNLACEDLKPVSEEVVENPTIQKDVLECNVKTTEVVGDIILKPANNSLKITEEVGHTDLMAAYVDNSSLTIKKPNELSRVLGLKTLATHGLAAVNSVPWDTIANYAKPFLNKVVSTTTNIVTRCLNRVCTNYMPYFFTLLLQLCTFTRSTNSRIKASMPTTIAKNTVKSVGKFCLEASFNYLKSPNFSKLINIIIWFLLLSVCLGSLIYSTAALGVLMSNLGMPSYCTGYREGYLNSTNVTIATYCTGSIPCSVCLSGLDSLDTYPSLETIQITISSFKWDLTAFGLVAEWFLAYILFTRFFYVLGLAAIMQLFFSYFAVHFISNSWLMWLIINLVQMAPISAMVRMYIFFASFYYVWKSYVHVVDGCNSSTCMMCYKRNRATRVECTTIVNGVRRSFYVYANGGKGFCKLHNWNCVNCDTFCAGSTFISDEVARDLSLQFKRPINPTDQSSYIVDSVTVKNGSIHLYFDKAGQKTYERHSLSHFVNLDNLRANNTKGSLPINVIVFDGKSKCEESSAKSASVYYSQLMCQPILLLDQALVSDVGDSAEVAVKMFDAYVNTFSSTFNVPMEKLKTLVATAEAELAKNVSLDNVLSTFISAARQGFVDSDVETKDVVECLKLSHQSDIEVTGDSCNNYMLTYNKVENMTPRDLGACIDCSARHINAQVAKSHNIALIWNVKDFMSLSEQLRKQIRSAAKKNNLPFKLTCATTRQVVNVVTTKIALKGGKIVNNWLKQLIKVTLVFLFVAAIFYLITPVHVMSKHTDFSSEIIGYKAIDGGVTRDIASTDTCFANKHADFDTWFSQRGGSYTNDKACPLIAAVITREVGFVVPGLPGTILRTTNGDFLHFLPRVFSAVGNICYTPSKLIEYTDFATSACVLAAECTIFKDASGKPVPYCYDTNVLEGSVAYESLRPDTRYVLMDGSIIQFPNTYLEGSVRVVTTFDSEYCRHGTCERSEAGVCVSTSGRWVLNNDYYRSLPGVFCGVDAVNLLTNMFTPLIQPIGALDISASIVAGGIVAIVVTCLAYYFMRFRRAFGEYSHVVAFNTLLFLMSFTVLCLTPVYSFLPGVYSVIYLYLTFYLTNDVSFLAHIQWMVMFTPLVPFWITIAYIICISTKHFYWFFSNYLKRRVVFNGVSFSTFEEAALCTFLLNKEMYLKLRSDVLLPLTQYNRYLALYNKYKYFSGAMDTTSYREAACCHLAKALNDFSNSGSDVLYQPPQTSITSAVLQSGFRKMAFPSGKVEGCMVQVTCGTTTLNGLWLDDVVYCPRHVICTSEDMLNPNYEDLLIRKSNHNFLVQAGNVQLRVIGHSMQNCVLKLKVDTANPKTPKYKFVRIQPGQTFSVLACYNGSPSGVYQCAMRPNFTIKGSFLNGSCGSVGFNIDYDCVSFCYMHHMELPTGVHAGTDLEGNFYGPFVDRQTAQAAGTDTTITVNVLAWLYAAVINGDRWFLNRFTTTLNDFNLVAMKYNYEPLTQDHVDILGPLSAQTGIAVLDMCASLKELLQNGMNGRTILGSALLEDEFTPFDVVRQCSGVTFQSAVKRTIKGTHHWLLLTILTSLLVLVQSTQWSLFFFLYENAFLPFAMGIIAMSAFAMMFVKHKHAFLCLFLLPSLATVAYFNMVYMPASWVMRIMTWLDMVDTSLSGFKLKDCVMYASAVVLLILMTARTVYDDGARRVWTLMNVLTLVYKVYYGNALDQAISMWALIISVTSNYSGVVTTVMFLARGIVFMCVEYCPIFFITGNTLQCIMLVYCFLGYFCTCYFGLFCLLNRYFRLTLGVYDYLVSTQEFRYMNSQGLLPPKNSIDAFKLNIKLLGVGGKPCIKVATVQSKMSDVKCTSVVLLSVLQQLRVESSSKLWAQCVQLHNDILLAKDTTEAFEKMVSLLSVLLSMQGAVDINKLCEEMLDNRATLQAIASEFSSLPSYAAFATAQEAYEQAVANGDSEVVLKKLKKSLNVAKSEFDRDAAMQRKLEKMADQAMTQMYKQARSEDKRAKVTSAMQTMLFTMLRKLDNDALNNIINNARDGCVPLNIIPLTTAAKLMVVIPDYNTYKNTCDGTTFTYASALWEIQQVVDADSKIVQLSEISMDNSPNLAWPLIVTALRANSAVKLQNNELSPVALRQMSCAAGTTQTACTDDNALAYYNTTKGGRFVLALLSDLQDLKWARFPKSDGTGTIYTELEPPCRFVTDTPKGPKVKYLYFIKGLNNLNRGMVLGSLAATVRLQAGNATEVPANSTVLSFCAFAVDAAKAYKDYLASGGQPITNCVKMLCTHTGTGQAITVTPEANMDQESFGGASCCLYCRCHIDHPNPKGFCDLKGKYVQIPTTCANDPVGFTLKNTVCTVCGMWKGYGCSCDQLREPMLQSADAQSFLNRVCGVSAARLTPCGTGTSTDVVYRAFDIYNDKVAGFAKFLKTNCCRFQEKDEDDNLIDSYFVVKRHTFSNYQHEETIYNLLKDCPAVAKHDFFKFRIDGDMVPHISRQRLTKYTMADLVYALRHFDEGNCDTLKEILVTYNCCDDDYFNKKDWYDFVENPDILRVYANLGERVRQALLKTVQFCDAMRNAGIVGVLTLDNQDLNGNWYDFGDFIQTTPGSGVPVVDSYYSLLMPILTLTRALTAESHVDTDLTKPYIKWDLLKYDFTEERLKLFDRYFKYWDQTYHPNCVNCLDDRCILHCANFNVLFSTVFPPTSFGPLVRKIFVDGVPFVVSTGYHFRELGVVHNQDVNLHSSRLSFKELLVYAADPAMHAASGNLLLDKRTTCFSVAALTNNVAFQTVKPGNFNKDFYDFAVSKGFFKEGSSVELKHFFFAQDGNAAISDYDYYRYNLPTMCDIRQLLFVVEVVDKYFDCYDGGCINANQVIVNNLDKSAGFPFNKWGKARLYYDSMSYEDQDALFAYTKRNVIPTITQMNLKYAISAKNRARTVAGVSICSTMTNRQFHQKLLKSIAATRGATVVIGTSKFYGGWHNMLKTVYSDVENPHLMGWDYPKCDRAMPNMLRIMASLVLARKHTTCCSLSHRFYRLANECAQVLSEMVMCGGSLYVKPGGTSSGDATTAYANSVFNICQAVTANVNALLSTDGNKIADKYVRNLQHRLYECLYRNRDVDTDFVNEFYAYLRKHFSMMILSDDAVVCFNSTYASQGLVASIKNFKSVLYYQNNVFMSEAKCWTETDLTKGPHEFCSQHTMLVKQGDDYVYLPYPDPSRILGAGCFVDDIVKTDGTLMIERFVSLAIDAYPLTKHPNQEYADVFHLYLQYIRKLHDELTGHMLDMYSVMLTNDNTSRYWEPEFYEAMYTPHTVLQAVGACVLCNSQTSLRCGACIRRPFLCCKCCYDHVISTSHKLVLSVNPYVCNAPGCDVTDVTQLYLGGMSYYCKSHKPPISFPLCANGQVFGLYKNTCVGSDNVTDFNAIATCDWTNAGDYILANTCTERLKLFAAETLKATEETFKLSYGIATVREVLSDRELHLSWEVGKPRPPLNRNYVFTGYRVTKNSKVQIGEYTFEKGDYGDAVVYRGTTTYKLNVGDYFVLTSHTVMPLSAPTLVPQEHYVRITGLYPTLNISDEFSSNVANYQKVGMQKYSTLQGPPGTGKSHFAIGLALYYPSARIVYTACSHAAVDALCEKALKYLPIDKCSRIIPARARVECFDKFKVNSTLEQYVFCTVNALPETTADIVVFDEISMATNYDLSVVNARLRAKHYVYIGDPAQLPAPRTLLTKGTLEPEYFNSVCRLMKTIGPDMFLGTCRRCPAEIVDTVSALVYDNKLKAHKDKSAQCFKMFYKGVITHDVSSAINRPQIGVVREFLTRNPAWRKAVFISPYNSQNAVASKILGLPTQTVDSSQGSEYDYVIFTQTTETAHSCNVNRFNVAITRAKVGILCIMSDRDLYDKLQFTSLEIPRRNVATLQAENVTGLFKDCSKVITGLHPTQAPTHLSVDTKFKTEGLCVDIPGIPKDMTYRRLISMMGFKMNYQVNGYPNMFITREEAIRHVRAWIGFDVEGCHATREAVGTNLPLQLGFSTGVNLVAVPTGYVDTPNNTDFSRVSAKPPPGDQFKHLIPLMYKGLPWNVVRIKIVQMLSDTLKNLSDRVVFVLWAHGFELTSMKYFVKIGPERTCCLCDRRATCFSTASDTYACWHHSIGFDYVYNPFMIDVQQWGFTGNLQSNHDLYCQVHGNAHVASCDAIMTRCLAVHECFVKRVDWTIEYPIIGDELKINAACRKVQHMVVKAALLADKFPVLHDIGNPKAIKCVPQADVEWKFYDAQPCSDKAYKIEELFYSYATHSDKFTDGVCLFWNCNVDRYPANSIVCRFDTRVLSNLNLPGCDGGSLYVNKHAFHTPAFDKSAFVNLKQLPFFYYSDSPCESHGKQVVSDIDYVPLKSATCITRCNLGGAVCRHHANEYRLYLDAYNMMISAGFSLWVYKQFDTYNLWNTFTRLQSLENVAFNVVNKGHFDGQQGEVPVSIINNTVYTKVDGVDVELFENKTTLPVNVAFELWAKRNIKPVPEVKILNNLGVDIAANTVIWDYKRDAPAHISTIGVCSMTDIAKKPTETICAPLTVFFDGRVDGQVDLFRNARNGVLITEGSVKGLQPSVGPKQASLNGVTLIGEAVKTQFNYYKKVDGVVQQLPETYFTQSRNLQEFKPRSQMEIDFLELAMDEFIERYKLEGYAFEHIVYGDFSHSQLGGLHLLIGLAKRFKESPFELEDFIPMDSTVKNYFITDAQTGSSKCVCSVIDLLLDDFVEIIKSQDLSVVSKVVKVTIDYTEISFMLWCKDGHVETFYPKLQSSQAWQPGVAMPNLYKMQRMLLEKCDLQNYGDSATLPKGIMMNVAKYTQLCQYLNTLTLAVPYNMRVIHFGAGSDKGVAPGTAVLRQWLPTGTLLVDSDLNDFVSDADSTLIGDCATVHTANKWDLIISDMYDPKTKNVTKENDSKEGFFTYICGFIQQKLALGGSVAIKITEHSWNADLYKLMGHFAWWTAFVTNVNASSSEAFLIGCNYLGKPREQIDGYVMHANYIFWRNTNPIQLSSYSLFDMSKFPLKLRGTAVMSLKEGQINDMILSLLSKGRLIIRENNRVVISSDVLVNN
p297
aatp298
Rp299
aa(lp300
V21563..25384
p301
ag0
((lp302
(lp303
Vgene
p304
aVS
p305
aa(lp306
Vlocus_tag
p307
aVGU280_gp02
p308
aa(lp309
Vnote
p310
aVstructural protein
p311
aa(lp312
Vcodon_start
p313
aV1
p314
aa(lp315
Vproduct
p316
aVsurface glycoprotein
p317
aa(lp318
Vprotein_id
p319
aVYP_009724390.1
p320
aa(lp321
Vdb_xref
p322
aVGeneID:43560230
p323
aa(lp324
Vtranslation
p325
aVMFVFLVLLPLVSSQCVNLTTRTQLPPAYTNSFTRGVYYPDKVFRSSVLHSTQDLFLPFFSNVTWFHAIHVSGTNGTKRFDNPVLPFNDGVYFASTEKSNIIRGWIFGTTLDSKTQSLLIVNNATNVVIKVCEFQFCNDPFLGVYYHKNNKSWMESEFRVYSSANNCTFEYVSQPFLMDLEGKQGNFKNLREFVFKNIDGYFKIYSKHTPINLVRDLPQGFSALEPLVDLPIGINITRFQTLLALHRSYLTPGDSSSGWTAGAAAYYVGYLQPRTFLLKYNENGTITDAVDCALDPLSETKCTLKSFTVEKGIYQTSNFRVQPTESIVRFPNITNLCPFGEVFNATRFASVYAWNRKRISNCVADYSVLYNSASFSTFKCYGVSPTKLNDLCFTNVYADSFVIRGDEVRQIAPGQTGKIADYNYKLPDDFTGCVIAWNSNNLDSKVGGNYNYLYRLFRKSNLKPFERDISTEIYQAGSTPCNGVEGFNCYFPLQSYGFQPTNGVGYQPYRVVVLSFELLHAPATVCGPKKSTNLVKNKCVNFNFNGLTGTGVLTESNKKFLPFQQFGRDIADTTDAVRDPQTLEILDITPCSFGGVSVITPGTNTSNQVAVLYQDVNCTEVPVAIHADQLTPTWRVYSTGSNVFQTRAGCLIGAEHVNNSYECDIPIGAGICASYQTQTNSPRRARSVASQSIIAYTMSLGAENSVAYSNNSIAIPTNFTISVTTEILPVSMTKTSVDCTMYICGDSTECSNLLLQYGSFCTQLNRALTGIAVEQDKNTQEVFAQVKQIYKTPPIKDFGGFNFSQILPDPSKPSKRSFIEDLLFNKVTLADAGFIKQYGDCLGDIAARDLICAQKFNGLTVLPPLLTDEMIAQYTSALLAGTITSGWTFGAGAALQIPFAMQMAYRFNGIGVTQNVLYENQKLIANQFNSAIGKIQDSLSSTASALGKLQDVVNQNAQALNTLVKQLSSNFGAISSVLNDILSRLDKVEAEVQIDRLITGRLQSLQTYVTQQLIRAAEIRASANLAATKMSECVLGQSKRVDFCGKGYHLMSFPQSAPHGVVFLHVTYVPAQEKNFTTAPAICHDGKAHFPREGVFVSNGTHWFVTQRNFYEPQIITTDNTFVSGNCDVVIGIVNNTVYDPLQPELDSFKEELDKYFKNHTSPDVDLGDISGINASVVNIQKEIDRLNEVAKNLNESLIDLQELGKYEQYIKWPWYIWLGFIAGLIAIVMVTIMLCCMTSCCSCLKGCCSCGSCCKFDEDDSEPVLKGVKLHYT
p326
aatp327
Rp328
aa(lp329
V25393..26220
p330
ag0
((lp331
(lp332
Vgene
p333
aVORF3a
p334
aa(lp335
Vlocus_tag
p336
aVGU280_gp03
p337
aa(lp338
Vcodon_start
p339
aV1
p340
aa(lp341
Vproduct
p342
aVORF3a protein
p343
aa(lp344
Vprotein_id
p345
aVYP_009724391.1
p346
aa(lp347
Vdb_xref
p348
aVGeneID:43560231
p349
aa(lp350
Vtranslation
p351
aVMDLFMRIFTIGTVTLKQGEIKDATPSDFVRATATIPIQASLPFGWLIVGVALLAVFQSASKIITLKKRWQLALSKGVHFVCNLLLLFVTVYSHLLLVAAGLEAPFLYLYALVYFLQSINFVRIIMRLWLCWKCRSKNPLLYDANYFLCWHTNCYDYCIPYNSVTSSIVITSGDGTTSPISEHDYQIGGYTEKWESGVKDCVVLHSYFTSDYYQLYSTQLSTDTGVEHVTFFIYNKIVDEPEEHVQIHTIDGSSGVVNPVMEPIYDEPTTTTSVPL
p352
aatp353
Rp354
aa(lp355
V26245..26472
p356
ag0
((lp357
(lp358
Vgene
p359
aVE
p360
aa(lp361
Vlocus_tag
p362
aVGU280_gp04
p363
aa(lp364
Vnote
p365
aVstructural protein; E protein
p366
aa(lp367
Vcodon_start
p368
aV1
p369
aa(lp370
Vproduct
p371
aVenvelope protein
p372
aa(lp373
Vprotein_id
p374
aVYP_009724392.1
p375
aa(lp376
Vdb_xref
p377
aVGeneID:43560232
p378
aa(lp379
Vtranslation
p380
aVMYSFVSEETGTLIVNSVLLFLAFVVFLLVTLAILTALRLCAYCCNIVNVSLVKPSFYVYSRVKNLNSSRVPDLLV
p381
aatp382
Rp383
aa(lp384
V26523..27191
p385
ag0
((lp386
(lp387
Vgene
p388
aVM
p389
aa(lp390
Vlocus_tag
p391
aVGU280_gp05
p392
aa(lp393
Vnote
p394
aVstructural protein
p395
aa(lp396
Vcodon_start
p397
aV1
p398
aa(lp399
Vproduct
p400
aVmembrane glycoprotein
p401
aa(lp402
Vprotein_id
p403
aVYP_009724393.1
p404
aa(lp405
Vdb_xref
p406
aVGeneID:43560233
p407
aa(lp408
Vtranslation
p409
aVMADSNGTITVEELKKLLEQWNLVIGFLFLTWICLLQFAYANRNRFLYIIKLIFLWLLWPVTLACFVLAAVYRINWITGGIAIAMACLVGLMWLSYFIASFRLFARTRSMWSFNPETNILLNVPLHGTILTRPLLESELVIGAVILRGHLRIAGHHLGRCDIKDLPKEITVATSRTLSYYKLGASQRVAGDSGFAAYSRYRIGNYKLNTDHSSSSDNIALLVQ
p410
aatp411
Rp412
aa(lp413
V27202..27387
p414
ag0
((lp415
(lp416
Vgene
p417
aVORF6
p418
aa(lp419
Vlocus_tag
p420
aVGU280_gp06
p421
aa(lp422
Vcodon_start
p423
aV1
p424
aa(lp425
Vproduct
p426
aVORF6 protein
p427
aa(lp428
Vprotein_id
p429
aVYP_009724394.1
p430
aa(lp431
Vdb_xref
p432
aVGeneID:43560234
p433
aa(lp434
Vtranslation
p435
aVMFHLVDFQVTIAEILLIIMRTFKVSIWNLDYIINLIIKNLSKSLTENKYSQLDEEQPMEID
p436
aatp437
Rp438
aa(lp439
V27394..27759
p440
ag0
((lp441
(lp442
Vgene
p443
aVORF7a
p444
aa(lp445
Vlocus_tag
p446
aVGU280_gp07
p447
aa(lp448
Vcodon_start
p449
aV1
p450
aa(lp451
Vproduct
p452
aVORF7a protein
p453
aa(lp454
Vprotein_id
p455
aVYP_009724395.1
p456
aa(lp457
Vdb_xref
p458
aVGeneID:43560235
p459
aa(lp460
Vtranslation
p461
aVMKIILFLALITLATCELYHYQECVRGTTVLLKEPCSSGTYEGNSPFHPLADNKFALTCFSTQFAFACPDGVKHVYQLRARSVSPKLFIRQEEVQELYSPIFLIVAAIVFITLCFTLKRKTE
p462
aatp463
Rp464
aa(lp465
V27894..28259
p466
ag0
((lp467
(lp468
Vgene
p469
aVORF8
p470
aa(lp471
Vlocus_tag
p472
aVGU280_gp08
p473
aa(lp474
Vcodon_start
p475
aV1
p476
aa(lp477
Vproduct
p478
aVORF8 protein
p479
aa(lp480
Vprotein_id
p481
aVYP_009724396.1
p482
aa(lp483
Vdb_xref
p484
aVGeneID:43560236
p485
aa(lp486
Vtranslation
p487
aVMKFLVFLGIITTVAAFHQECSLQSCTQHQPYVVDDPCPIHFYSKWYIRVGARKSAPLIELCVDEAGSKSPIQYIDIGNYTVSCLPFTINCQEPKLGSLVVRCSFYEDFLEYHDVRVVLDFI
p488
aatp489
Rp490
aa(lp491
V28274..29533
p492
ag0
((lp493
(lp494
Vgene
p495
aVN
p496
aa(lp497
Vlocus_tag
p498
aVGU280_gp09
p499
aa(lp500
Vnote
p501
aVstructural protein
p502
aa(lp503
Vcodon_start
p504
aV1
p505
aa(lp506
Vproduct
p507
aVnucleocapsid phosphoprotein
p508
aa(lp509
Vprotein_id
p510
aVYP_009724397.2
p511
aa(lp512
Vdb_xref
p513
aVGeneID:43560237
p514
aa(lp515
Vtranslation
p516
aVMSDNGPQNQRNAPRITFGGPSDSTGSNQNGERSGARSKQRRPQGLPNNTASWFTALTQHGKEDLKFPRGQGVPINTNSSPDDQIGYYRRATRRIRGGDGKMKDLSPRWYFYYLGTGPEAGLPYGANKDGIIWVATEGALNTPKDHIGTRNPANNAAIVLQLPQGTTLPKGFYAEGSRGGSQASSRSSSRSRNSSRNSTPGSSRGTSPARMAGNGGDAALALLLLDRLNQLESKMSGKGQQQQGQTVTKKSAAEASKKPRQKRTATKAYNVTQAFGRRGPEQTQGNFGDQELIRQGTDYKHWPQIAQFAPSASAFFGMSRIGMEVTPSGTWLTYTGAIKLDDKDPNFKDQVILLNKHIDAYKTFPPTEPKKDKKKKADETQALPQRQKKQQTVTLLPAADLDDFSKQLQQSMSSADSTQA
p517
aatp518
Rp519
aa(lp520
V29558..29674
p521
ag0
((lp522
(lp523
Vgene
p524
aVORF10
p525
aa(lp526
Vlocus_tag
p527
aVGU280_gp10
p528
aa(lp529
Vcodon_start
p530
aV1
p531
aa(lp532
Vproduct
p533
aVORF10 protein
p534
aa(lp535
Vprotein_id
p536
aVYP_009725255.1
p537
aa(lp538
Vdb_xref
p539
aVGeneID:43569679
p540
aa(lp541
Vtranslation
p542
aVMGYINVFAFPFTIYSLLLCRMNSRNYIAQVDVVNFNLT
p543
aatp544
Rp545
aatp546
Rp547
aa(lp548
V3'UTR
p549
aV29675..29903
p550
aatp551
Rp552
aatp553
Rp554
aa(lp555
VOrigin
p556
aVattaaaggtttataccttcccaggtaacaaaccaaccaactttcgatctcttgtagatctgttctctaaacgaactttaaaatctgtgtggctgtcactcggctgcatgcttagtgcactcacgcagtataattaataactaattactgtcgttgacaggacacgagtaactcgtctatcttctgcaggctgcttacggtttcgtccgtgttgcagccgatcatcagcacatctaggtttcgtccgggtgtgaccgaaaggtaagatggagagccttgtccctggtttcaacgagaaaacacacgtccaactcagtttgcctgttttacaggttcgcgacgtgctcgtacgtggctttggagactccgtggaggaggtcttatcagaggcacgtcaacatcttaaagatggcacttgtggcttagtagaagttgaaaaaggcgttttgcctcaacttgaacagccctatgtgttcatcaaacgttcggatgctcgaactgcacctcatggtcatgttatggttgagctggtagcagaactcgaaggcattcagtacggtcgtagtggtgagacacttggtgtccttgtccctcatgtgggcgaaataccagtggcttaccgcaaggttcttcttcgtaagaacggtaataaaggagctggtggccatagttacggcgccgatctaaagtcatttgacttaggcgacgagcttggcactgatccttatgaagattttcaagaaaactggaacactaaacatagcagtggtgttacccgtgaactcatgcgtgagcttaacggaggggcatacactcgctatgtcgataacaacttctgtggccctgatggctaccctcttgagtgcattaaagaccttctagcacgtgctggtaaagcttcatgcactttgtccgaacaactggactttattgacactaagaggggtgtatactgctgccgtgaacatgagcatgaaattgcttggtacacggaacgttctgaaaagagctatgaattgcagacaccttttgaaattaaattggcaaagaaatttgacaccttcaatggggaatgtccaaattttgtatttcccttaaattccataatcaagactattcaaccaagggttgaaaagaaaaagcttgatggctttatgggtagaattcgatctgtctatccagttgcgtcaccaaatgaatgcaaccaaatgtgcctttcaactctcatgaagtgtgatcattgtggtgaaacttcatggcagacgggcgattttgttaaagccacttgcgaattttgtggcactgagaatttgactaaagaaggtgccactacttgtggttacttaccccaaaatgctgttgttaaaatttattgtccagcatgtcacaattcagaagtaggacctgagcatagtcttgccgaataccataatgaatctggcttgaaaaccattcttcgtaagggtggtcgcactattgcctttggaggctgtgtgttctcttatgttggttgccataacaagtgtgcctattgggttccacgtgctagcgctaacataggttgtaaccatacaggtgttgttggagaaggttccgaaggtcttaatgacaaccttcttgaaatactccaaaaagagaaagtcaacatcaatattgttggtgactttaaacttaatgaagagatcgccattattttggcatctttttctgcttccacaagtgcttttgtggaaactgtgaaaggtttggattataaagcattcaaacaaattgttgaatcctgtggtaattttaaagttacaaaaggaaaagctaaaaaaggtgcctggaatattggtgaacagaaatcaatactgagtcctctttatgcatttgcatcagaggctgctcgtgttgtacgatcaattttctcccgcactcttgaaactgctcaaaattctgtgcgtgttttacagaaggccgctataacaatactagatggaatttcacagtattcactgagactcattgatgctatgatgttcacatctgatttggctactaacaatctagttgtaatggcctacattacaggtggtgttgttcagttgacttcgcagtggctaactaacatctttggcactgtttatgaaaaactcaaacccgtccttgattggcttgaagagaagtttaaggaaggtgtagagtttcttagagacggttgggaaattgttaaatttatctcaacctgtgcttgtgaaattgtcggtggacaaattgtcacctgtgcaaaggaaattaaggagagtgttcagacattctttaagcttgtaaataaatttttggctttgtgtgctgactctatcattattggtggagctaaacttaaagccttgaatttaggtgaaacatttgtcacgcactcaaagggattgtacagaaagtgtgttaaatccagagaagaaactggcctactcatgcctctaaaagccccaaaagaaattatcttcttagagggagaaacacttcccacagaagtgttaacagaggaagttgtcttgaaaactggtgatttacaaccattagaacaacctactagtgaagctgttgaagctccattggttggtacaccagtttgtattaacgggcttatgttgctcgaaatcaaagacacagaaaagtactgtgcccttgcacctaatatgatggtaacaaacaataccttcacactcaaaggcggtgcaccaacaaaggttacttttggtgatgacactgtgatagaagtgcaaggttacaagagtgtgaatatcacttttgaacttgatgaaaggattgataaagtacttaatgagaagtgctctgcctatacagttgaactcggtacagaagtaaatgagttcgcctgtgttgtggcagatgctgtcataaaaactttgcaaccagtatctgaattacttacaccactgggcattgatttagatgagtggagtatggctacatactacttatttgatgagtctggtgagtttaaattggcttcacatatgtattgttctttctaccctccagatgaggatgaagaagaaggtgattgtgaagaagaagagtttgagccatcaactcaatatgagtatggtactgaagatgattaccaaggtaaacctttggaatttggtgccacttctgctgctcttcaacctgaagaagagcaagaagaagattggttagatgatgatagtcaacaaactgttggtcaacaagacggcagtgaggacaatcagacaactactattcaaacaattgttgaggttcaacctcaattagagatggaacttacaccagttgttcagactattgaagtgaatagttttagtggttatttaaaacttactgacaatgtatacattaaaaatgcagacattgtggaagaagctaaaaaggtaaaaccaacagtggttgttaatgcagccaatgtttaccttaaacatggaggaggtgttgcaggagccttaaataaggctactaacaatgccatgcaagttgaatctgatgattacatagctactaatggaccacttaaagtgggtggtagttgtgttttaagcggacacaatcttgctaaacactgtcttcatgttgtcggcccaaatgttaacaaaggtgaagacattcaacttcttaagagtgcttatgaaaattttaatcagcacgaagttctacttgcaccattattatcagctggtatttttggtgctgaccctatacattctttaagagtttgtgtagatactgttcgcacaaatgtctacttagctgtctttgataaaaatctctatgacaaacttgtttcaagctttttggaaatgaagagtgaaaagcaagttgaacaaaagatcgctgagattcctaaagaggaagttaagccatttataactgaaagtaaaccttcagttgaacagagaaaacaagatgataagaaaatcaaagcttgtgttgaagaagttacaacaactctggaagaaactaagttcctcacagaaaacttgttactttatattgacattaatggcaatcttcatccagattctgccactcttgttagtgacattgacatcactttcttaaagaaagatgctccatatatagtgggtgatgttgttcaagagggtgttttaactgctgtggttatacctactaaaaaggctggtggcactactgaaatgctagcgaaagctttgagaaaagtgccaacagacaattatataaccacttacccgggtcagggtttaaatggttacactgtagaggaggcaaagacagtgcttaaaaagtgtaaaagtgccttttacattctaccatctattatctctaatgagaagcaagaaattcttggaactgtttcttggaatttgcgagaaatgcttgcacatgcagaagaaacacgcaaattaatgcctgtctgtgtggaaactaaagccatagtttcaactatacagcgtaaatataagggtattaaaatacaagagggtgtggttgattatggtgctagattttacttttacaccagtaaaacaactgtagcgtcacttatcaacacacttaacgatctaaatgaaactcttgttacaatgccacttggctatgtaacacatggcttaaatttggaagaagctgctcggtatatgagatctctcaaagtgccagctacagtttctgtttcttcacctgatgctgttacagcgtataatggttatcttacttcttcttctaaaacacctgaagaacattttattgaaaccatctcacttgctggttcctataaagattggtcctattctggacaatctacacaactaggtatagaatttcttaagagaggtgataaaagtgtatattacactagtaatcctaccacattccacctagatggtgaagttatcacctttgacaatcttaagacacttctttctttgagagaagtgaggactattaaggtgtttacaacagtagacaacattaacctccacacgcaagttgtggacatgtcaatgacatatggacaacagtttggtccaacttatttggatggagctgatgttactaaaataaaacctcataattcacatgaaggtaaaacattttatgttttacctaatgatgacactctacgtgttgaggcttttgagtactaccacacaactgatcctagttttctgggtaggtacatgtcagcattaaatcacactaaaaagtggaaatacccacaagttaatggtttaacttctattaaatgggcagataacaactgttatcttgccactgcattgttaacactccaacaaatagagttgaagtttaatccacctgctctacaagatgcttattacagagcaagggctggtgaagctgctaacttttgtgcacttatcttagcctactgtaataagacagtaggtgagttaggtgatgttagagaaacaatgagttacttgtttcaacatgccaatttagattcttgcaaaagagtcttgaacgtggtgtgtaaaacttgtggacaacagcagacaacccttaagggtgtagaagctgttatgtacatgggcacactttcttatgaacaatttaagaaaggtgttcagataccttgtacgtgtggtaaacaagctacaaaatatctagtacaacaggagtcaccttttgttatgatgtcagcaccacctgctcagtatgaacttaagcatggtacatttacttgtgctagtgagtacactggtaattaccagtgtggtcactataaacatataacttctaaagaaactttgtattgcatagacggtgctttacttacaaagtcctcagaatacaaaggtcctattacggatgttttctacaaagaaaacagttacacaacaaccataaaaccagttacttataaattggatggtgttgtttgtacagaaattgaccctaagttggacaattattataagaaagacaattcttatttcacagagcaaccaattgatcttgtaccaaaccaaccatatccaaacgcaagcttcgataattttaagtttgtatgtgataatatcaaatttgctgatgatttaaaccagttaactggttataagaaacctgcttcaagagagcttaaagttacatttttccctgacttaaatggtgatgtggtggctattgattataaacactacacaccctcttttaagaaaggagctaaattgttacataaacctattgtttggcatgttaacaatgcaactaataaagccacgtataaaccaaatacctggtgtatacgttgtctttggagcacaaaaccagttgaaacatcaaattcgtttgatgtactgaagtcagaggacgcgcagggaatggataatcttgcctgcgaagatctaaaaccagtctctgaagaagtagtggaaaatcctaccatacagaaagacgttcttgagtgtaatgtgaaaactaccgaagttgtaggagacattatacttaaaccagcaaataatagtttaaaaattacagaagaggttggccacacagatctaatggctgcttatgtagacaattctagtcttactattaagaaacctaatgaattatctagagtattaggtttgaaaacccttgctactcatggtttagctgctgttaatagtgtcccttgggatactatagctaattatgctaagccttttcttaacaaagttgttagtacaactactaacatagttacacggtgtttaaaccgtgtttgtactaattatatgccttatttctttactttattgctacaattgtgtacttttactagaagtacaaattctagaattaaagcatctatgccgactactatagcaaagaatactgttaagagtgtcggtaaattttgtctagaggcttcatttaattatttgaagtcacctaatttttctaaactgataaatattataatttggtttttactattaagtgtttgcctaggttctttaatctactcaaccgctgctttaggtgttttaatgtctaatttaggcatgccttcttactgtactggttacagagaaggctatttgaactctactaatgtcactattgcaacctactgtactggttctataccttgtagtgtttgtcttagtggtttagattctttagacacctatccttctttagaaactatacaaattaccatttcatcttttaaatgggatttaactgcttttggcttagttgcagagtggtttttggcatatattcttttcactaggtttttctatgtacttggattggctgcaatcatgcaattgtttttcagctattttgcagtacattttattagtaattcttggcttatgtggttaataattaatcttgtacaaatggccccgatttcagctatggttagaatgtacatcttctttgcatcattttattatgtatggaaaagttatgtgcatgttgtagacggttgtaattcatcaacttgtatgatgtgttacaaacgtaatagagcaacaagagtcgaatgtacaactattgttaatggtgttagaaggtccttttatgtctatgctaatggaggtaaaggcttttgcaaactacacaattggaattgtgttaattgtgatacattctgtgctggtagtacatttattagtgatgaagttgcgagagacttgtcactacagtttaaaagaccaataaatcctactgaccagtcttcttacatcgttgatagtgttacagtgaagaatggttccatccatctttactttgataaagctggtcaaaagacttatgaaagacattctctctctcattttgttaacttagacaacctgagagctaataacactaaaggttcattgcctattaatgttatagtttttgatggtaaatcaaaatgtgaagaatcatctgcaaaatcagcgtctgtttactacagtcagcttatgtgtcaacctatactgttactagatcaggcattagtgtctgatgttggtgatagtgcggaagttgcagttaaaatgtttgatgcttacgttaatacgttttcatcaacttttaacgtaccaatggaaaaactcaaaacactagttgcaactgcagaagctgaacttgcaaagaatgtgtccttagacaatgtcttatctacttttatttcagcagctcggcaagggtttgttgattcagatgtagaaactaaagatgttgttgaatgtcttaaattgtcacatcaatctgacatagaagttactggcgatagttgtaataactatatgctcacctataacaaagttgaaaacatgacaccccgtgaccttggtgcttgtattgactgtagtgcgcgtcatattaatgcgcaggtagcaaaaagtcacaacattgctttgatatggaacgttaaagatttcatgtcattgtctgaacaactacgaaaacaaatacgtagtgctgctaaaaagaataacttaccttttaagttgacatgtgcaactactagacaagttgttaatgttgtaacaacaaagatagcacttaagggtggtaaaattgttaataattggttgaagcagttaattaaagttacacttgtgttcctttttgttgctgctattttctatttaataacacctgttcatgtcatgtctaaacatactgacttttcaagtgaaatcataggatacaaggctattgatggtggtgtcactcgtgacatagcatctacagatacttgttttgctaacaaacatgctgattttgacacatggtttagccagcgtggtggtagttatactaatgacaaagcttgcccattgattgctgcagtcataacaagagaagtgggttttgtcgtgcctggtttgcctggcacgatattacgcacaactaatggtgactttttgcatttcttacctagagtttttagtgcagttggtaacatctgttacacaccatcaaaacttatagagtacactgactttgcaacatcagcttgtgttttggctgctgaatgtacaatttttaaagatgcttctggtaagccagtaccatattgttatgataccaatgtactagaaggttctgttgcttatgaaagtttacgccctgacacacgttatgtgctcatggatggctctattattcaatttcctaacacctaccttgaaggttctgttagagtggtaacaacttttgattctgagtactgtaggcacggcacttgtgaaagatcagaagctggtgtttgtgtatctactagtggtagatgggtacttaacaatgattattacagatctttaccaggagttttctgtggtgtagatgctgtaaatttacttactaatatgtttacaccactaattcaacctattggtgctttggacatatcagcatctatagtagctggtggtattgtagctatcgtagtaacatgccttgcctactattttatgaggtttagaagagcttttggtgaatacagtcatgtagttgcctttaatactttactattccttatgtcattcactgtactctgtttaacaccagtttactcattcttacctggtgtttattctgttatttacttgtacttgacattttatcttactaatgatgtttcttttttagcacatattcagtggatggttatgttcacacctttagtacctttctggataacaattgcttatatcatttgtatttccacaaagcatttctattggttctttagtaattacctaaagagacgtgtagtctttaatggtgtttcctttagtacttttgaagaagctgcgctgtgcacctttttgttaaataaagaaatgtatctaaagttgcgtagtgatgtgctattacctcttacgcaatataatagatacttagctctttataataagtacaagtattttagtggagcaatggatacaactagctacagagaagctgcttgttgtcatctcgcaaaggctctcaatgacttcagtaactcaggttctgatgttctttaccaaccaccacaaacctctatcacctcagctgttttgcagagtggttttagaaaaatggcattcccatctggtaaagttgagggttgtatggtacaagtaacttgtggtacaactacacttaacggtctttggcttgatgacgtagtttactgtccaagacatgtgatctgcacctctgaagacatgcttaaccctaattatgaagatttactcattcgtaagtctaatcataatttcttggtacaggctggtaatgttcaactcagggttattggacattctatgcaaaattgtgtacttaagcttaaggttgatacagccaatcctaagacacctaagtataagtttgttcgcattcaaccaggacagactttttcagtgttagcttgttacaatggttcaccatctggtgtttaccaatgtgctatgaggcccaatttcactattaagggttcattccttaatggttcatgtggtagtgttggttttaacatagattatgactgtgtctctttttgttacatgcaccatatggaattaccaactggagttcatgctggcacagacttagaaggtaacttttatggaccttttgttgacaggcaaacagcacaagcagctggtacggacacaactattacagttaatgttttagcttggttgtacgctgctgttataaatggagacaggtggtttctcaatcgatttaccacaactcttaatgactttaaccttgtggctatgaagtacaattatgaacctctaacacaagaccatgttgacatactaggacctctttctgctcaaactggaattgccgttttagatatgtgtgcttcattaaaagaattactgcaaaatggtatgaatggacgtaccatattgggtagtgctttattagaagatgaatttacaccttttgatgttgttagacaatgctcaggtgttactttccaaagtgcagtgaaaagaacaatcaagggtacacaccactggttgttactcacaattttgacttcacttttagttttagtccagagtactcaatggtctttgttcttttttttgtatgaaaatgcctttttaccttttgctatgggtattattgctatgtctgcttttgcaatgatgtttgtcaaacataagcatgcatttctctgtttgtttttgttaccttctcttgccactgtagcttattttaatatggtctatatgcctgctagttgggtgatgcgtattatgacatggttggatatggttgatactagtttgtctggttttaagctaaaagactgtgttatgtatgcatcagctgtagtgttactaatccttatgacagcaagaactgtgtatgatgatggtgctaggagagtgtggacacttatgaatgtcttgacactcgtttataaagtttattatggtaatgctttagatcaagccatttccatgtgggctcttataatctctgttacttctaactactcaggtgtagttacaactgtcatgtttttggccagaggtattgtttttatgtgtgttgagtattgccctattttcttcataactggtaatacacttcagtgtataatgctagtttattgtttcttaggctatttttgtacttgttactttggcctcttttgtttactcaaccgctactttagactgactcttggtgtttatgattacttagtttctacacaggagtttagatatatgaattcacagggactactcccacccaagaatagcatagatgccttcaaactcaacattaaattgttgggtgttggtggcaaaccttgtatcaaagtagccactgtacagtctaaaatgtcagatgtaaagtgcacatcagtagtcttactctcagttttgcaacaactcagagtagaatcatcatctaaattgtgggctcaatgtgtccagttacacaatgacattctcttagctaaagatactactgaagcctttgaaaaaatggtttcactactttctgttttgctttccatgcagggtgctgtagacataaacaagctttgtgaagaaatgctggacaacagggcaaccttacaagctatagcctcagagtttagttcccttccatcatatgcagcttttgctactgctcaagaagcttatgagcaggctgttgctaatggtgattctgaagttgttcttaaaaagttgaagaagtctttgaatgtggctaaatctgaatttgaccgtgatgcagccatgcaacgtaagttggaaaagatggctgatcaagctatgacccaaatgtataaacaggctagatctgaggacaagagggcaaaagttactagtgctatgcagacaatgcttttcactatgcttagaaagttggataatgatgcactcaacaacattatcaacaatgcaagagatggttgtgttcccttgaacataatacctcttacaacagcagccaaactaatggttgtcataccagactataacacatataaaaatacgtgtgatggtacaacatttacttatgcatcagcattgtgggaaatccaacaggttgtagatgcagatagtaaaattgttcaacttagtgaaattagtatggacaattcacctaatttagcatggcctcttattgtaacagctttaagggccaattctgctgtcaaattacagaataatgagcttagtcctgttgcactacgacagatgtcttgtgctgccggtactacacaaactgcttgcactgatgacaatgcgttagcttactacaacacaacaaagggaggtaggtttgtacttgcactgttatccgatttacaggatttgaaatgggctagattccctaagagtgatggaactggtactatctatacagaactggaaccaccttgtaggtttgttacagacacacctaaaggtcctaaagtgaagtatttatactttattaaaggattaaacaacctaaatagaggtatggtacttggtagtttagctgccacagtacgtctacaagctggtaatgcaacagaagtgcctgccaattcaactgtattatctttctgtgcttttgctgtagatgctgctaaagcttacaaagattatctagctagtgggggacaaccaatcactaattgtgttaagatgttgtgtacacacactggtactggtcaggcaataacagttacaccggaagccaatatggatcaagaatcctttggtggtgcatcgtgttgtctgtactgccgttgccacatagatcatccaaatcctaaaggattttgtgacttaaaaggtaagtatgtacaaatacctacaacttgtgctaatgaccctgtgggttttacacttaaaaacacagtctgtaccgtctgcggtatgtggaaaggttatggctgtagttgtgatcaactccgcgaacccatgcttcagtcagctgatgcacaatcgtttttaaacgggtttgcggtgtaagtgcagcccgtcttacaccgtgcggcacaggcactagtactgatgtcgtatacagggcttttgacatctacaatgataaagtagctggttttgctaaattcctaaaaactaattgttgtcgcttccaagaaaaggacgaagatgacaatttaattgattcttactttgtagttaagagacacactttctctaactaccaacatgaagaaacaatttataatttacttaaggattgtccagctgttgctaaacatgacttctttaagtttagaatagacggtgacatggtaccacatatatcacgtcaacgtcttactaaatacacaatggcagacctcgtctatgctttaaggcattttgatgaaggtaattgtgacacattaaaagaaatacttgtcacatacaattgttgtgatgatgattatttcaataaaaaggactggtatgattttgtagaaaacccagatatattacgcgtatacgccaacttaggtgaacgtgtacgccaagctttgttaaaaacagtacaattctgtgatgccatgcgaaatgctggtattgttggtgtactgacattagataatcaagatctcaatggtaactggtatgatttcggtgatttcatacaaaccacgccaggtagtggagttcctgttgtagattcttattattcattgttaatgcctatattaaccttgaccagggctttaactgcagagtcacatgttgacactgacttaacaaagccttacattaagtgggatttgttaaaatatgacttcacggaagagaggttaaaactctttgaccgttattttaaatattgggatcagacataccacccaaattgtgttaactgtttggatgacagatgcattctgcattgtgcaaactttaatgttttattctctacagtgttcccacctacaagttttggaccactagtgagaaaaatatttgttgatggtgttccatttgtagtttcaactggataccacttcagagagctaggtgttgtacataatcaggatgtaaacttacatagctctagacttagttttaaggaattacttgtgtatgctgctgaccctgctatgcacgctgcttctggtaatctattactagataaacgcactacgtgcttttcagtagctgcacttactaacaatgttgcttttcaaactgtcaaacccggtaattttaacaaagacttctatgactttgctgtgtctaagggtttctttaaggaaggaagttctgttgaattaaaacacttcttctttgctcaggatggtaatgctgctatcagcgattatgactactatcgttataatctaccaacaatgtgtgatatcagacaactactatttgtagttgaagttgttgataagtactttgattgttacgatggtggctgtattaatgctaaccaagtcatcgtcaacaacctagacaaatcagctggttttccatttaataaatggggtaaggctagactttattatgattcaatgagttatgaggatcaagatgcacttttcgcatatacaaaacgtaatgtcatccctactataactcaaatgaatcttaagtatgccattagtgcaaagaatagagctcgcaccgtagctggtgtctctatctgtagtactatgaccaatagacagtttcatcaaaaattattgaaatcaatagccgccactagaggagctactgtagtaattggaacaagcaaattctatggtggttggcacaacatgttaaaaactgtttatagtgatgtagaaaaccctcaccttatgggttgggattatcctaaatgtgatagagccatgcctaacatgcttagaattatggcctcacttgttcttgctcgcaaacatacaacgtgttgtagcttgtcacaccgtttctatagattagctaatgagtgtgctcaagtattgagtgaaatggtcatgtgtggcggttcactatatgttaaaccaggtggaacctcatcaggagatgccacaactgcttatgctaatagtgtttttaacatttgtcaagctgtcacggccaatgttaatgcacttttatctactgatggtaacaaaattgccgataagtatgtccgcaatttacaacacagactttatgagtgtctctatagaaatagagatgttgacacagactttgtgaatgagttttacgcatatttgcgtaaacatttctcaatgatgatactctctgacgatgctgttgtgtgtttcaatagcacttatgcatctcaaggtctagtggctagcataaagaactttaagtcagttctttattatcaaaacaatgtttttatgtctgaagcaaaatgttggactgagactgaccttactaaaggacctcatgaattttgctctcaacatacaatgctagttaaacagggtgatgattatgtgtaccttccttacccagatccatcaagaatcctaggggccggctgttttgtagatgatatcgtaaaaacagatggtacacttatgattgaacggttcgtgtctttagctatagatgcttacccacttactaaacatcctaatcaggagtatgctgatgtctttcatttgtacttacaatacataagaaagctacatgatgagttaacaggacacatgttagacatgtattctgttatgcttactaatgataacacttcaaggtattgggaacctgagttttatgaggctatgtacacaccgcatacagtcttacaggctgttggggcttgtgttctttgcaattcacagacttcattaagatgtggtgcttgcatacgtagaccattcttatgttgtaaatgctgttacgaccatgtcatatcaacatcacataaattagtcttgtctgttaatccgtatgtttgcaatgctccaggttgtgatgtcacagatgtgactcaactttacttaggaggtatgagctattattgtaaatcacataaaccacccattagttttccattgtgtgctaatggacaagtttttggtttatataaaaatacatgtgttggtagcgataatgttactgactttaatgcaattgcaacatgtgactggacaaatgctggtgattacattttagctaacacctgtactgaaagactcaagctttttgcagcagaaacgctcaaagctactgaggagacatttaaactgtcttatggtattgctactgtacgtgaagtgctgtctgacagagaattacatctttcatgggaagttggtaaacctagaccaccacttaaccgaaattatgtctttactggttatcgtgtaactaaaaacagtaaagtacaaataggagagtacacctttgaaaaaggtgactatggtgatgctgttgtttaccgaggtacaacaacttacaaattaaatgttggtgattattttgtgctgacatcacatacagtaatgccattaagtgcacctacactagtgccacaagagcactatgttagaattactggcttatacccaacactcaatatctcagatgagttttctagcaatgttgcaaattatcaaaaggttggtatgcaaaagtattctacactccagggaccacctggtactggtaagagtcattttgctattggcctagctctctactacccttctgctcgcatagtgtatacagcttgctctcatgccgctgttgatgcactatgtgagaaggcattaaaatatttgcctatagataaatgtagtagaattatacctgcacgtgctcgtgtagagtgttttgataaattcaaagtgaattcaacattagaacagtatgtcttttgtactgtaaatgcattgcctgagacgacagcagatatagttgtctttgatgaaatttcaatggccacaaattatgatttgagtgttgtcaatgccagattacgtgctaagcactatgtgtacattggcgaccctgctcaattacctgcaccacgcacattgctaactaagggcacactagaaccagaatatttcaattcagtgtgtagacttatgaaaactataggtccagacatgttcctcggaacttgtcggcgttgtcctgctgaaattgttgacactgtgagtgctttggtttatgataataagcttaaagcacataaagacaaatcagctcaatgctttaaaatgttttataagggtgttatcacgcatgatgtttcatctgcaattaacaggccacaaataggcgtggtaagagaattccttacacgtaaccctgcttggagaaaagctgtctttatttcaccttataattcacagaatgctgtagcctcaaagattttgggactaccaactcaaactgttgattcatcacagggctcagaatatgactatgtcatattcactcaaaccactgaaacagctcactcttgtaatgtaaacagatttaatgttgctattaccagagcaaaagtaggcatactttgcataatgtctgatagagacctttatgacaagttgcaatttacaagtcttgaaattccacgtaggaatgtggcaactttacaagctgaaaatgtaacaggactctttaaagattgtagtaaggtaatcactgggttacatcctacacaggcacctacacacctcagtgttgacactaaattcaaaactgaaggtttatgtgttgacatacctggcatacctaaggacatgacctatagaagactcatctctatgatgggttttaaaatgaattatcaagttaatggttaccctaacatgtttatcacccgcgaagaagctataagacatgtacgtgcatggattggcttcgatgtcgaggggtgtcatgctactagagaagctgttggtaccaatttacctttacagctaggtttttctacaggtgttaacctagttgctgtacctacaggttatgttgatacacctaataatacagatttttccagagttagtgctaaaccaccgcctggagatcaatttaaacacctcataccacttatgtacaaaggacttccttggaatgtagtgcgtataaagattgtacaaatgttaagtgacacacttaaaaatctctctgacagagtcgtatttgtcttatgggcacatggctttgagttgacatctatgaagtattttgtgaaaataggacctgagcgcacctgttgtctatgtgatagacgtgccacatgcttttccactgcttcagacacttatgcctgttggcatcattctattggatttgattacgtctataatccgtttatgattgatgttcaacaatggggttttacaggtaacctacaaagcaaccatgatctgtattgtcaagtccatggtaatgcacatgtagctagttgtgatgcaatcatgactaggtgtctagctgtccacgagtgctttgttaagcgtgttgactggactattgaatatcctataattggtgatgaactgaagattaatgcggcttgtagaaaggttcaacacatggttgttaaagctgcattattagcagacaaattcccagttcttcacgacattggtaaccctaaagctattaagtgtgtacctcaagctgatgtagaatggaagttctatgatgcacagccttgtagtgacaaagcttataaaatagaagaattattctattcttatgccacacattctgacaaattcacagatggtgtatgcctattttggaattgcaatgtcgatagatatcctgctaattccattgtttgtagatttgacactagagtgctatctaaccttaacttgcctggttgtgatggtggcagtttgtatgtaaataaacatgcattccacacaccagcttttgataaaagtgcttttgttaatttaaaacaattaccatttttctattactctgacagtccatgtgagtctcatggaaaacaagtagtgtcagatatagattatgtaccactaaagtctgctacgtgtataacacgttgcaatttaggtggtgctgtctgtagacatcatgctaatgagtacagattgtatctcgatgcttataacatgatgatctcagctggctttagcttgtgggtttacaaacaatttgatacttataacctctggaacacttttacaagacttcagagtttagaaaatgtggcttttaatgttgtaaataagggacactttgatggacaacagggtgaagtaccagtttctatcattaataacactgtttacacaaaagttgatggtgttgatgtagaattgtttgaaaataaaacaacattacctgttaatgtagcatttgagctttgggctaagcgcaacattaaaccagtaccagaggtgaaaatactcaataatttgggtgtggacattgctgctaatactgtgatctgggactacaaaagagatgctccagcacatatatctactattggtgtttgttctatgactgacatagccaagaaaccaactgaaacgatttgtgcaccactcactgtcttttttgatggtagagttgatggtcaagtagacttatttagaaatgcccgtaatggtgttcttattacagaaggtagtgttaaaggtttacaaccatctgtaggtcccaaacaagctagtcttaatggagtcacattaattggagaagccgtaaaaacacagttcaattattataagaaagttgatggtgttgtccaacaattacctgaaacttactttactcagagtagaaatttacaagaatttaaacccaggagtcaaatggaaattgatttcttagaattagctatggatgaattcattgaacggtataaattagaaggctatgccttcgaacatatcgtttatggagattttagtcatagtcagttaggtggtttacatctactgattggactagctaaacgttttaaggaatcaccttttgaattagaagattttattcctatggacagtacagttaaaaactatttcataacagatgcgcaaacaggttcatctaagtgtgtgtgttctgttattgatttattacttgatgattttgttgaaataataaaatcccaagatttatctgtagtttctaaggttgtcaaagtgactattgactatacagaaatttcatttatgctttggtgtaaagatggccatgtagaaacattttacccaaaattacaatctagtcaagcgtggcaaccgggtgttgctatgcctaatctttacaaaatgcaaagaatgctattagaaaagtgtgaccttcaaaattatggtgatagtgcaacattacctaaaggcataatgatgaatgtcgcaaaatatactcaactgtgtcaatatttaaacacattaacattagctgtaccctataatatgagagttatacattttggtgctggttctgataaaggagttgcaccaggtacagctgttttaagacagtggttgcctacgggtacgctgcttgtcgattcagatcttaatgactttgtctctgatgcagattcaactttgattggtgattgtgcaactgtacatacagctaataaatgggatctcattattagtgatatgtacgaccctaagactaaaaatgttacaaaagaaaatgactctaaagagggttttttcacttacatttgtgggtttatacaacaaaagctagctcttggaggttccgtggctataaagataacagaacattcttggaatgctgatctttataagctcatgggacacttcgcatggtggacagcctttgttactaatgtgaatgcgtcatcatctgaagcatttttaattggatgtaattatcttggcaaaccacgcgaacaaatagatggttatgtcatgcatgcaaattacatattttggaggaatacaaatccaattcagttgtcttcctattctttatttgacatgagtaaatttccccttaaattaaggggtactgctgttatgtctttaaaagaaggtcaaatcaatgatatgattttatctcttcttagtaaaggtagacttataattagagaaaacaacagagttgttatttctagtgatgttcttgttaacaactaaacgaacaatgtttgtttttcttgttttattgccactagtctctagtcagtgtgttaatcttacaaccagaactcaattaccccctgcatacactaattctttcacacgtggtgtttattaccctgacaaagttttcagatcctcagttttacattcaactcaggacttgttcttacctttcttttccaatgttacttggttccatgctatacatgtctctgggaccaatggtactaagaggtttgataaccctgtcctaccatttaatgatggtgtttattttgcttccactgagaagtctaacataataagaggctggatttttggtactactttagattcgaagacccagtccctacttattgttaataacgctactaatgttgttattaaagtctgtgaatttcaattttgtaatgatccatttttgggtgtttattaccacaaaaacaacaaaagttggatggaaagtgagttcagagtttattctagtgcgaataattgcacttttgaatatgtctctcagccttttcttatggaccttgaaggaaaacagggtaatttcaaaaatcttagggaatttgtgtttaagaatattgatggttattttaaaatatattctaagcacacgcctattaatttagtgcgtgatctccctcagggtttttcggctttagaaccattggtagatttgccaataggtattaacatcactaggtttcaaactttacttgctttacatagaagttatttgactcctggtgattcttcttcaggttggacagctggtgctgcagcttattatgtgggttatcttcaacctaggacttttctattaaaatataatgaaaatggaaccattacagatgctgtagactgtgcacttgaccctctctcagaaacaaagtgtacgttgaaatccttcactgtagaaaaaggaatctatcaaacttctaactttagagtccaaccaacagaatctattgttagatttcctaatattacaaacttgtgcccttttggtgaagtttttaacgccaccagatttgcatctgtttatgcttggaacaggaagagaatcagcaactgtgttgctgattattctgtcctatataattccgcatcattttccacttttaagtgttatggagtgtctcctactaaattaaatgatctctgctttactaatgtctatgcagattcatttgtaattagaggtgatgaagtcagacaaatcgctccagggcaaactggaaagattgctgattataattataaattaccagatgattttacaggctgcgttatagcttggaattctaacaatcttgattctaaggttggtggtaattataattacctgtatagattgtttaggaagtctaatctcaaaccttttgagagagatatttcaactgaaatctatcaggccggtagcacaccttgtaatggtgttgaaggttttaattgttactttcctttacaatcatatggtttccaacccactaatggtgttggttaccaaccatacagagtagtagtactttcttttgaacttctacatgcaccagcaactgtttgtggacctaaaaagtctactaatttggttaaaaacaaatgtgtcaatttcaacttcaatggtttaacaggcacaggtgttcttactgagtctaacaaaaagtttctgcctttccaacaatttggcagagacattgctgacactactgatgctgtccgtgatccacagacacttgagattcttgacattacaccatgttcttttggtggtgtcagtgttataacaccaggaacaaatacttctaaccaggttgctgttctttatcaggatgttaactgcacagaagtccctgttgctattcatgcagatcaacttactcctacttggcgtgtttattctacaggttctaatgtttttcaaacacgtgcaggctgtttaataggggctgaacatgtcaacaactcatatgagtgtgacatacccattggtgcaggtatatgcgctagttatcagactcagactaattctcctcggcgggcacgtagtgtagctagtcaatccatcattgcctacactatgtcacttggtgcagaaaattcagttgcttactctaataactctattgccatacccacaaattttactattagtgttaccacagaaattctaccagtgtctatgaccaagacatcagtagattgtacaatgtacatttgtggtgattcaactgaatgcagcaatcttttgttgcaatatggcagtttttgtacacaattaaaccgtgctttaactggaatagctgttgaacaagacaaaaacacccaagaagtttttgcacaagtcaaacaaatttacaaaacaccaccaattaaagattttggtggttttaatttttcacaaatattaccagatccatcaaaaccaagcaagaggtcatttattgaagatctacttttcaacaaagtgacacttgcagatgctggcttcatcaaacaatatggtgattgccttggtgatattgctgctagagacctcatttgtgcacaaaagtttaacggccttactgttttgccacctttgctcacagatgaaatgattgctcaatacacttctgcactgttagcgggtacaatcacttctggttggacctttggtgcaggtgctgcattacaaataccatttgctatgcaaatggcttataggtttaatggtattggagttacacagaatgttctctatgagaaccaaaaattgattgccaaccaatttaatagtgctattggcaaaattcaagactcactttcttccacagcaagtgcacttggaaaacttcaagatgtggtcaaccaaaatgcacaagctttaaacacgcttgttaaacaacttagctccaattttggtgcaatttcaagtgttttaaatgatatcctttcacgtcttgacaaagttgaggctgaagtgcaaattgataggttgatcacaggcagacttcaaagtttgcagacatatgtgactcaacaattaattagagctgcagaaatcagagcttctgctaatcttgctgctactaaaatgtcagagtgtgtacttggacaatcaaaaagagttgatttttgtggaaagggctatcatcttatgtccttccctcagtcagcacctcatggtgtagtcttcttgcatgtgacttatgtccctgcacaagaaaagaacttcacaactgctcctgccatttgtcatgatggaaaagcacactttcctcgtgaaggtgtctttgtttcaaatggcacacactggtttgtaacacaaaggaatttttatgaaccacaaatcattactacagacaacacatttgtgtctggtaactgtgatgttgtaataggaattgtcaacaacacagtttatgatcctttgcaacctgaattagactcattcaaggaggagttagataaatattttaagaatcatacatcaccagatgttgatttaggtgacatctctggcattaatgcttcagttgtaaacattcaaaaagaaattgaccgcctcaatgaggttgccaagaatttaaatgaatctctcatcgatctccaagaacttggaaagtatgagcagtatataaaatggccatggtacatttggctaggttttatagctggcttgattgccatagtaatggtgacaattatgctttgctgtatgaccagttgctgtagttgtctcaagggctgttgttcttgtggatcctgctgcaaatttgatgaagacgactctgagccagtgctcaaaggagtcaaattacattacacataaacgaacttatggatttgtttatgagaatcttcacaattggaactgtaactttgaagcaaggtgaaatcaaggatgctactccttcagattttgttcgcgctactgcaacgataccgatacaagcctcactccctttcggatggcttattgttggcgttgcacttcttgctgtttttcagagcgcttccaaaatcataaccctcaaaaagagatggcaactagcactctccaagggtgttcactttgtttgcaacttgctgttgttgtttgtaacagtttactcacaccttttgctcgttgctgctggccttgaagccccttttctctatctttatgctttagtctacttcttgcagagtataaactttgtaagaataataatgaggctttggctttgctggaaatgccgttccaaaaacccattactttatgatgccaactattttctttgctggcatactaattgttacgactattgtataccttacaatagtgtaacttcttcaattgtcattacttcaggtgatggcacaacaagtcctatttctgaacatgactaccagattggtggttatactgaaaaatgggaatctggagtaaaagactgtgttgtattacacagttacttcacttcagactattaccagctgtactcaactcaattgagtacagacactggtgttgaacatgttaccttcttcatctacaataaaattgttgatgagcctgaagaacatgtccaaattcacacaatcgacggttcatccggagttgttaatccagtaatggaaccaatttatgatgaaccgacgacgactactagcgtgcctttgtaagcacaagctgatgagtacgaacttatgtactcattcgtttcggaagagacaggtacgttaatagttaatagcgtacttctttttcttgctttcgtggtattcttgctagttacactagccatccttactgcgcttcgattgtgtgcgtactgctgcaatattgttaacgtgagtcttgtaaaaccttctttttacgtttactctcgtgttaaaaatctgaattcttctagagttcctgatcttctggtctaaacgaactaaatattatattagtttttctgtttggaactttaattttagccatggcagattccaacggtactattaccgttgaagagcttaaaaagctccttgaacaatggaacctagtaataggtttcctattccttacatggatttgtcttctacaatttgcctatgccaacaggaataggtttttgtatataattaagttaattttcctctggctgttatggccagtaactttagcttgttttgtgcttgctgctgtttacagaataaattggatcaccggtggaattgctatcgcaatggcttgtcttgtaggcttgatgtggctcagctacttcattgcttctttcagactgtttgcgcgtacgcgttccatgtggtcattcaatccagaaactaacattcttctcaacgtgccactccatggcactattctgaccagaccgcttctagaaagtgaactcgtaatcggagctgtgatccttcgtggacatcttcgtattgctggacaccatctaggacgctgtgacatcaaggacctgcctaaagaaatcactgttgctacatcacgaacgctttcttattacaaattgggagcttcgcagcgtgtagcaggtgactcaggttttgctgcatacagtcgctacaggattggcaactataaattaaacacagaccattccagtagcagtgacaatattgctttgcttgtacagtaagtgacaacagatgtttcatctcgttgactttcaggttactatagcagagatattactaattattatgaggacttttaaagtttccatttggaatcttgattacatcataaacctcataattaaaaatttatctaagtcactaactgagaataaatattctcaattagatgaagagcaaccaatggagattgattaaacgaacatgaaaattattcttttcttggcactgataacactcgctacttgtgagctttatcactaccaagagtgtgttagaggtacaacagtacttttaaaagaaccttgctcttctggaacatacgagggcaattcaccatttcatcctctagctgataacaaatttgcactgacttgctttagcactcaatttgcttttgcttgtcctgacggcgtaaaacacgtctatcagttacgtgccagatcagtttcacctaaactgttcatcagacaagaggaagttcaagaactttactctccaatttttcttattgttgcggcaatagtgtttataacactttgcttcacactcaaaagaaagacagaatgattgaactttcattaattgacttctatttgtgctttttagcctttctgctattccttgttttaattatgcttattatcttttggttctcacttgaactgcaagatcataatgaaacttgtcacgcctaaacgaacatgaaatttcttgttttcttaggaatcatcacaactgtagctgcatttcaccaagaatgtagtttacagtcatgtactcaacatcaaccatatgtagttgatgacccgtgtcctattcacttctattctaaatggtatattagagtaggagctagaaaatcagcacctttaattgaattgtgcgtggatgaggctggttctaaatcacccattcagtacatcgatatcggtaattatacagtttcctgtttaccttttacaattaattgccaggaacctaaattgggtagtcttgtagtgcgttgttcgttctatgaagactttttagagtatcatgacgttcgtgttgttttagatttcatctaaacgaacaaactaaaatgtctgataatggaccccaaaatcagcgaaatgcaccccgcattacgtttggtggaccctcagattcaactggcagtaaccagaatggagaacgcagtggggcgcgatcaaaacaacgtcggccccaaggtttacccaataatactgcgtcttggttcaccgctctcactcaacatggcaaggaagaccttaaattccctcgaggacaaggcgttccaattaacaccaatagcagtccagatgaccaaattggctactaccgaagagctaccagacgaattcgtggtggtgacggtaaaatgaaagatctcagtccaagatggtatttctactacctaggaactgggccagaagctggacttccctatggtgctaacaaagacggcatcatatgggttgcaactgagggagccttgaatacaccaaaagatcacattggcacccgcaatcctgctaacaatgctgcaatcgtgctacaacttcctcaaggaacaacattgccaaaaggcttctacgcagaagggagcagaggcggcagtcaagcctcttctcgttcctcatcacgtagtcgcaacagttcaagaaattcaactccaggcagcagtaggggaacttctcctgctagaatggctggcaatggcggtgatgctgctcttgctttgctgctgcttgacagattgaaccagcttgagagcaaaatgtctggtaaaggccaacaacaacaaggccaaactgtcactaagaaatctgctgctgaggcttctaagaagcctcggcaaaaacgtactgccactaaagcatacaatgtaacacaagctttcggcagacgtggtccagaacaaacccaaggaaattttggggaccaggaactaatcagacaaggaactgattacaaacattggccgcaaattgcacaatttgcccccagcgcttcagcgttcttcggaatgtcgcgcattggcatggaagtcacaccttcgggaacgtggttgacctacacaggtgccatcaaattggatgacaaagatccaaatttcaaagatcaagtcattttgctgaataagcatattgacgcatacaaaacattcccaccaacagagcctaaaaaggacaaaaagaagaaggctgatgaaactcaagccttaccgcagagacagaagaaacagcaaactgtgactcttcttcctgctgcagatttggatgatttctccaaacaattgcaacaatccatgagcagtgctgactcaactcaggcctaaactcatgcagaccacacaaggcagatgggctatataaacgttttcgcttttccgtttacgatatatagtctactcttgtgcagaatgaattctcgtaactacatagcacaagtagatgtagttaactttaatctcacatagcaatctttaatcagtgtgtaacattagggaggacttgaaagagccaccacattttcaccgaggccacgcggagtacgatcgagtgtacagtgaacaatgctagggagagctgcctatatggaagagccctaatgtgtaaaattaattttagtagtgctatccccatgtgattttaatagcttcttaggagaatgacaaaaaaaaaaaaaaaaaaaaaaaaaaaaaaaaa
p557
aatp558
Rp559
.